target datalayout = "e-m:e-p270:32:32-p271:32:32-p272:64:64-i64:64-i128:128-f80:128-n8:16:32:64-S128"
target triple = "x86_64-pc-linux-gnu"

%struct._priv_exr_context_t = type { i8, i8, i8, i8, i8, i8, i8, i8, %struct.exr_attr_string_t, %struct.exr_attr_string_t, ptr, ptr, ptr, ptr, ptr, ptr, ptr, ptr, i32, i32, i32, i32, i32, float, ptr, ptr, ptr, i64, ptr, ptr, i64, i32, i32, i32, i32, %struct._priv_exr_part_t, ptr, ptr, %struct.exr_attribute_list, %union.pthread_mutex_t, i8, i8, [2 x i8], i32 }
%struct.exr_attr_string_t = type { i32, i32, ptr }
%struct._priv_exr_part_t = type { i32, i32, %struct.exr_attribute_list, ptr, ptr, ptr, ptr, ptr, ptr, ptr, ptr, ptr, ptr, ptr, ptr, ptr, ptr, %struct.exr_attr_box2i_t, %struct.exr_attr_box2i_t, i32, i32, i32, float, i32, i32, ptr, ptr, ptr, ptr, i64, i16, i16, i32, i64, i64 }
%struct.exr_attr_box2i_t = type { %struct.exr_attr_v2i_t, %struct.exr_attr_v2i_t }
%struct.exr_attr_v2i_t = type { i32, i32 }
%struct.exr_attribute_list = type { i32, i32, ptr, ptr }
%union.pthread_mutex_t = type { %struct.__pthread_mutex_s }
%struct.__pthread_mutex_s = type { i32, i32, i32, i32, i32, i16, i16, %struct.__pthread_internal_list }
%struct.__pthread_internal_list = type { ptr, ptr }

@.str = private unnamed_addr constant [29 x i8] c"Part index (%d) out of range\00", align 1

; Function Attrs: inlinehint nounwind uwtable
define internal void @internal_exr_unlock(ptr noundef %0) #2 {
  %2 = alloca ptr, align 8
  %3 = alloca ptr, align 8
  store ptr %0, ptr %2, align 8, !tbaa !3
  call void @llvm.lifetime.start.p0(i64 8, ptr %3) #6
  %4 = load ptr, ptr %2, align 8, !tbaa !3
  %5 = ptrtoint ptr %4 to i64
  %6 = inttoptr i64 %5 to ptr
  store ptr %6, ptr %3, align 8, !tbaa !3
  %7 = load ptr, ptr %3, align 8, !tbaa !3
  %8 = getelementptr inbounds nuw %struct._priv_exr_context_t, ptr %7, i32 0, i32 39
  %9 = call i32 @pthread_mutex_unlock(ptr noundef %8) #6
  call void @llvm.lifetime.end.p0(i64 8, ptr %3) #6
  ret void
}

; Function Attrs: inlinehint nounwind uwtable
define internal void @internal_exr_lock(ptr noundef %0) #2 {
  %2 = alloca ptr, align 8
  %3 = alloca ptr, align 8
  store ptr %0, ptr %2, align 8, !tbaa !3
  call void @llvm.lifetime.start.p0(i64 8, ptr %3) #6
  %4 = load ptr, ptr %2, align 8, !tbaa !3
  %5 = ptrtoint ptr %4 to i64
  %6 = inttoptr i64 %5 to ptr
  store ptr %6, ptr %3, align 8, !tbaa !3
  %7 = load ptr, ptr %3, align 8, !tbaa !3
  %8 = getelementptr inbounds nuw %struct._priv_exr_context_t, ptr %7, i32 0, i32 39
  %9 = call i32 @pthread_mutex_lock(ptr noundef %8) #6
  call void @llvm.lifetime.end.p0(i64 8, ptr %3) #6
  ret void
}

; Function Attrs: nounwind uwtable
define i32 @exr_get_scanlines_per_chunk(ptr noundef %0, i32 noundef %1, ptr noundef %2) #0 {
  %4 = alloca i32, align 4
  %5 = alloca ptr, align 8
  %6 = alloca i32, align 4
  %7 = alloca ptr, align 8
  %8 = alloca ptr, align 8
  %9 = alloca i32, align 4
  store ptr %0, ptr %5, align 8, !tbaa !3
  store i32 %1, ptr %6, align 4, !tbaa !27
  store ptr %2, ptr %7, align 8, !tbaa !8
  call void @llvm.lifetime.start.p0(i64 8, ptr %8) #6
  %10 = load ptr, ptr %5, align 8, !tbaa !3
  %11 = icmp ne ptr %10, null
  br i1 %11, label %13, label %12

12:                                               ; preds = %3
  store i32 2, ptr %4, align 4
  store i32 1, ptr %9, align 4
  br label %106

13:                                               ; preds = %3
  %14 = load ptr, ptr %5, align 8, !tbaa !3
  %15 = getelementptr inbounds nuw %struct._priv_exr_context_t, ptr %14, i32 0, i32 0
  %16 = load i8, ptr %15, align 8, !tbaa !25
  %17 = zext i8 %16 to i32
  %18 = icmp eq i32 %17, 1
  br i1 %18, label %19, label %21

19:                                               ; preds = %13
  %20 = load ptr, ptr %5, align 8, !tbaa !3
  call void @internal_exr_lock(ptr noundef %20)
  br label %21

21:                                               ; preds = %19, %13
  %22 = load i32, ptr %6, align 4, !tbaa !27
  %23 = icmp slt i32 %22, 0
  br i1 %23, label %30, label %24

24:                                               ; preds = %21
  %25 = load i32, ptr %6, align 4, !tbaa !27
  %26 = load ptr, ptr %5, align 8, !tbaa !3
  %27 = getelementptr inbounds nuw %struct._priv_exr_context_t, ptr %26, i32 0, i32 34
  %28 = load i32, ptr %27, align 4, !tbaa !26
  %29 = icmp sge i32 %25, %28
  br i1 %29, label %30, label %45

30:                                               ; preds = %24, %21
  %31 = load ptr, ptr %5, align 8, !tbaa !3
  %32 = getelementptr inbounds nuw %struct._priv_exr_context_t, ptr %31, i32 0, i32 0
  %33 = load i8, ptr %32, align 8, !tbaa !25
  %34 = zext i8 %33 to i32
  %35 = icmp eq i32 %34, 1
  br i1 %35, label %36, label %38

36:                                               ; preds = %30
  %37 = load ptr, ptr %5, align 8, !tbaa !3
  call void @internal_exr_unlock(ptr noundef %37)
  br label %38

38:                                               ; preds = %36, %30
  %39 = load ptr, ptr %5, align 8, !tbaa !3
  %40 = getelementptr inbounds nuw %struct._priv_exr_context_t, ptr %39, i32 0, i32 14
  %41 = load ptr, ptr %40, align 8, !tbaa !29
  %42 = load ptr, ptr %5, align 8, !tbaa !3
  %43 = load i32, ptr %6, align 4, !tbaa !27
  %44 = call i32 (ptr, i32, ptr, ...) %41(ptr noundef %42, i32 noundef 4, ptr noundef @.str, i32 noundef %43)
  store i32 %44, ptr %4, align 4
  store i32 1, ptr %9, align 4
  br label %106

45:                                               ; preds = %24
  %46 = load ptr, ptr %5, align 8, !tbaa !3
  %47 = getelementptr inbounds nuw %struct._priv_exr_context_t, ptr %46, i32 0, i32 37
  %48 = load ptr, ptr %47, align 8, !tbaa !30
  %49 = load i32, ptr %6, align 4, !tbaa !27
  %50 = sext i32 %49 to i64
  %51 = getelementptr inbounds ptr, ptr %48, i64 %50
  %52 = load ptr, ptr %51, align 8, !tbaa !31
  store ptr %52, ptr %8, align 8, !tbaa !31
  %53 = load ptr, ptr %7, align 8, !tbaa !8
  %54 = icmp ne ptr %53, null
  br i1 %54, label %65, label %55

55:                                               ; preds = %45
  %56 = load ptr, ptr %5, align 8, !tbaa !3
  %57 = getelementptr inbounds nuw %struct._priv_exr_context_t, ptr %56, i32 0, i32 0
  %58 = load i8, ptr %57, align 8, !tbaa !25
  %59 = zext i8 %58 to i32
  %60 = icmp eq i32 %59, 1
  br i1 %60, label %61, label %63

61:                                               ; preds = %55
  %62 = load ptr, ptr %5, align 8, !tbaa !3
  call void @internal_exr_unlock(ptr noundef %62)
  br label %64

63:                                               ; preds = %55
  br label %64

64:                                               ; preds = %63, %61
  store i32 3, ptr %4, align 4
  store i32 1, ptr %9, align 4
  br label %106

65:                                               ; preds = %45
  %66 = load ptr, ptr %8, align 8, !tbaa !31
  %67 = getelementptr inbounds nuw %struct._priv_exr_part_t, ptr %66, i32 0, i32 1
  %68 = load i32, ptr %67, align 4, !tbaa !32
  %69 = icmp eq i32 %68, 0
  br i1 %69, label %75, label %70

70:                                               ; preds = %65
  %71 = load ptr, ptr %8, align 8, !tbaa !31
  %72 = getelementptr inbounds nuw %struct._priv_exr_part_t, ptr %71, i32 0, i32 1
  %73 = load i32, ptr %72, align 4, !tbaa !32
  %74 = icmp eq i32 %73, 2
  br i1 %74, label %75, label %90

75:                                               ; preds = %70, %65
  %76 = load ptr, ptr %8, align 8, !tbaa !31
  %77 = getelementptr inbounds nuw %struct._priv_exr_part_t, ptr %76, i32 0, i32 30
  %78 = load i16, ptr %77, align 8, !tbaa !65
  %79 = sext i16 %78 to i32
  %80 = load ptr, ptr %7, align 8, !tbaa !8
  store i32 %79, ptr %80, align 4, !tbaa !27
  %81 = load ptr, ptr %5, align 8, !tbaa !3
  %82 = getelementptr inbounds nuw %struct._priv_exr_context_t, ptr %81, i32 0, i32 0
  %83 = load i8, ptr %82, align 8, !tbaa !25
  %84 = zext i8 %83 to i32
  %85 = icmp eq i32 %84, 1
  br i1 %85, label %86, label %88

86:                                               ; preds = %75
  %87 = load ptr, ptr %5, align 8, !tbaa !3
  call void @internal_exr_unlock(ptr noundef %87)
  br label %89

88:                                               ; preds = %75
  br label %89

89:                                               ; preds = %88, %86
  store i32 0, ptr %4, align 4
  store i32 1, ptr %9, align 4
  br label %106

90:                                               ; preds = %70
  %91 = load ptr, ptr %7, align 8, !tbaa !8
  store i32 -1, ptr %91, align 4, !tbaa !27
  %92 = load ptr, ptr %5, align 8, !tbaa !3
  %93 = getelementptr inbounds nuw %struct._priv_exr_context_t, ptr %92, i32 0, i32 0
  %94 = load i8, ptr %93, align 8, !tbaa !25
  %95 = zext i8 %94 to i32
  %96 = icmp eq i32 %95, 1
  br i1 %96, label %97, label %99

97:                                               ; preds = %90
  %98 = load ptr, ptr %5, align 8, !tbaa !3
  call void @internal_exr_unlock(ptr noundef %98)
  br label %100

99:                                               ; preds = %90
  br label %100

100:                                              ; preds = %99, %97
  %101 = load ptr, ptr %5, align 8, !tbaa !3
  %102 = getelementptr inbounds nuw %struct._priv_exr_context_t, ptr %101, i32 0, i32 12
  %103 = load ptr, ptr %102, align 8, !tbaa !10
  %104 = load ptr, ptr %5, align 8, !tbaa !3
  %105 = call i32 %103(ptr noundef %104, i32 noundef 18)
  store i32 %105, ptr %4, align 4
  store i32 1, ptr %9, align 4
  br label %106

106:                                              ; preds = %100, %89, %64, %38, %12
  call void @llvm.lifetime.end.p0(i64 8, ptr %8) #6
  %107 = load i32, ptr %4, align 4
  ret i32 %107
}