; Function Attrs: nounwind uwtable
define i32 @exr_get_scanlines_per_chunk(ptr noundef %0, i32 noundef %1, ptr noundef writeonly %2) local_unnamed_addr #0 {
  %.not = icmp eq ptr %0, null
  br i1 %.not, label %59, label %4

4:                                                ; preds = %3
  %5 = load i8, ptr %0, align 8, !tbaa !22
  %6 = icmp eq i8 %5, 1
  br i1 %6, label %7, label %10

7:                                                ; preds = %4
  %8 = getelementptr inbounds nuw i8, ptr %0, i64 504
  %9 = tail call i32 @pthread_mutex_lock(ptr noundef nonnull %8) #6
  br label %10

10:                                               ; preds = %7, %4
  %11 = icmp slt i32 %1, 0
  br i1 %11, label %15, label %12

12:                                               ; preds = %10
  %13 = getelementptr inbounds nuw i8, ptr %0, i64 196
  %14 = load i32, ptr %13, align 4, !tbaa !23
  %.not31 = icmp slt i32 %1, %14
  br i1 %.not31, label %25, label %15

15:                                               ; preds = %12, %10
  %16 = load i8, ptr %0, align 8, !tbaa !22
  %17 = icmp eq i8 %16, 1
  br i1 %17, label %18, label %21

18:                                               ; preds = %15
  %19 = getelementptr inbounds nuw i8, ptr %0, i64 504
  %20 = tail call i32 @pthread_mutex_unlock(ptr noundef nonnull %19) #6
  br label %21

21:                                               ; preds = %18, %15
  %22 = getelementptr inbounds nuw i8, ptr %0, i64 72
  %23 = load ptr, ptr %22, align 8, !tbaa !25
  %24 = tail call i32 (ptr, i32, ptr, ...) %23(ptr noundef nonnull %0, i32 noundef 4, ptr noundef nonnull @.str, i32 noundef %1) #6
  br label %59

25:                                               ; preds = %12
  %26 = getelementptr inbounds nuw i8, ptr %0, i64 472
  %27 = load ptr, ptr %26, align 8, !tbaa !26
  %28 = zext nneg i32 %1 to i64
  %29 = getelementptr inbounds nuw ptr, ptr %27, i64 %28
  %30 = load ptr, ptr %29, align 8, !tbaa !27
  %.not32 = icmp eq ptr %2, null
  br i1 %.not32, label %31, label %37

31:                                               ; preds = %25
  %32 = load i8, ptr %0, align 8, !tbaa !22
  %33 = icmp eq i8 %32, 1
  br i1 %33, label %34, label %59

34:                                               ; preds = %31
  %35 = getelementptr inbounds nuw i8, ptr %0, i64 504
  %36 = tail call i32 @pthread_mutex_unlock(ptr noundef nonnull %35) #6
  br label %59

37:                                               ; preds = %25
  %38 = getelementptr inbounds nuw i8, ptr %30, i64 4
  %39 = load i32, ptr %38, align 4, !tbaa !28
  switch i32 %39, label %49 [
    i32 0, label %40
    i32 2, label %40
  ]

40:                                               ; preds = %37, %37
  %41 = getelementptr inbounds nuw i8, ptr %30, i64 240
  %42 = load i16, ptr %41, align 8, !tbaa !58
  %43 = sext i16 %42 to i32
  store i32 %43, ptr %2, align 4, !tbaa !24
  %44 = load i8, ptr %0, align 8, !tbaa !22
  %45 = icmp eq i8 %44, 1
  br i1 %45, label %46, label %59

46:                                               ; preds = %40
  %47 = getelementptr inbounds nuw i8, ptr %0, i64 504
  %48 = tail call i32 @pthread_mutex_unlock(ptr noundef nonnull %47) #6
  br label %59

49:                                               ; preds = %37
  store i32 -1, ptr %2, align 4, !tbaa !24
  %50 = load i8, ptr %0, align 8, !tbaa !22
  %51 = icmp eq i8 %50, 1
  br i1 %51, label %52, label %55

52:                                               ; preds = %49
  %53 = getelementptr inbounds nuw i8, ptr %0, i64 504
  %54 = tail call i32 @pthread_mutex_unlock(ptr noundef nonnull %53) #6
  br label %55

55:                                               ; preds = %49, %52
  %56 = getelementptr inbounds nuw i8, ptr %0, i64 56
  %57 = load ptr, ptr %56, align 8, !tbaa !3
  %58 = tail call i32 %57(ptr noundef nonnull %0, i32 noundef 18) #6
  br label %59

59:                                               ; preds = %46, %40, %34, %31, %3, %55, %21
  %.0 = phi i32 [ %24, %21 ], [ %58, %55 ], [ 2, %3 ], [ 3, %31 ], [ 3, %34 ], [ 0, %40 ], [ 0, %46 ]
  ret i32 %.0
}